target datalayout = "e-m:e-p270:32:32-p271:32:32-p272:64:64-i64:64-i128:128-f80:128-n8:16:32:64-S128"
target triple = "x86_64-pc-linux-gnu"

; Function Attrs: inlinehint nounwind uwtable
define internal i32 @Kit_TruthWordNum(i32 noundef %0) #2 {
  %2 = alloca i32, align 4
  store i32 %0, ptr %2, align 4, !tbaa !8
  %3 = load i32, ptr %2, align 4, !tbaa !8
  %4 = icmp sle i32 %3, 5
  br i1 %4, label %5, label %6

5:                                                ; preds = %1
  br label %10

6:                                                ; preds = %1
  %7 = load i32, ptr %2, align 4, !tbaa !8
  %8 = sub nsw i32 %7, 5
  %9 = shl i32 1, %8
  br label %10

10:                                               ; preds = %6, %5
  %11 = phi i32 [ 1, %5 ], [ %9, %6 ]
  ret i32 %11
}

; Function Attrs: nounwind uwtable
define void @Kit_TruthExistNew(ptr noundef %0, ptr noundef %1, i32 noundef %2, i32 noundef %3) #0 {
  %5 = alloca ptr, align 8
  %6 = alloca ptr, align 8
  %7 = alloca i32, align 4
  %8 = alloca i32, align 4
  %9 = alloca i32, align 4
  %10 = alloca i32, align 4
  %11 = alloca i32, align 4
  %12 = alloca i32, align 4
  %13 = alloca i32, align 4
  store ptr %0, ptr %5, align 8, !tbaa !3
  store ptr %1, ptr %6, align 8, !tbaa !3
  store i32 %2, ptr %7, align 4, !tbaa !8
  store i32 %3, ptr %8, align 4, !tbaa !8
  call void @llvm.lifetime.start.p0(i64 4, ptr %9) #8
  %14 = load i32, ptr %7, align 4, !tbaa !8
  %15 = call i32 @Kit_TruthWordNum(i32 noundef %14)
  store i32 %15, ptr %9, align 4, !tbaa !8
  call void @llvm.lifetime.start.p0(i64 4, ptr %10) #8
  call void @llvm.lifetime.start.p0(i64 4, ptr %11) #8
  call void @llvm.lifetime.start.p0(i64 4, ptr %12) #8
  %16 = load i32, ptr %8, align 4, !tbaa !8
  switch i32 %16, label %192 [
    i32 0, label %17
    i32 1, label %52
    i32 2, label %87
    i32 3, label %122
    i32 4, label %157
  ]

17:                                               ; preds = %4
  store i32 0, ptr %10, align 4, !tbaa !8
  br label %18

18:                                               ; preds = %48, %17
  %19 = load i32, ptr %10, align 4, !tbaa !8
  %20 = load i32, ptr %9, align 4, !tbaa !8
  %21 = icmp slt i32 %19, %20
  br i1 %21, label %22, label %51

22:                                               ; preds = %18
  %23 = load ptr, ptr %6, align 8, !tbaa !3
  %24 = load i32, ptr %10, align 4, !tbaa !8
  %25 = sext i32 %24 to i64
  %26 = getelementptr inbounds i32, ptr %23, i64 %25
  %27 = load i32, ptr %26, align 4, !tbaa !8
  %28 = load ptr, ptr %6, align 8, !tbaa !3
  %29 = load i32, ptr %10, align 4, !tbaa !8
  %30 = sext i32 %29 to i64
  %31 = getelementptr inbounds i32, ptr %28, i64 %30
  %32 = load i32, ptr %31, align 4, !tbaa !8
  %33 = and i32 %32, -1431655766
  %34 = lshr i32 %33, 1
  %35 = or i32 %27, %34
  %36 = load ptr, ptr %6, align 8, !tbaa !3
  %37 = load i32, ptr %10, align 4, !tbaa !8
  %38 = sext i32 %37 to i64
  %39 = getelementptr inbounds i32, ptr %36, i64 %38
  %40 = load i32, ptr %39, align 4, !tbaa !8
  %41 = and i32 %40, 1431655765
  %42 = shl i32 %41, 1
  %43 = or i32 %35, %42
  %44 = load ptr, ptr %5, align 8, !tbaa !3
  %45 = load i32, ptr %10, align 4, !tbaa !8
  %46 = sext i32 %45 to i64
  %47 = getelementptr inbounds i32, ptr %44, i64 %46
  store i32 %43, ptr %47, align 4, !tbaa !8
  br label %48

48:                                               ; preds = %22
  %49 = load i32, ptr %10, align 4, !tbaa !8
  %50 = add nsw i32 %49, 1
  store i32 %50, ptr %10, align 4, !tbaa !8
  br label %18, !llvm.loop !96

51:                                               ; preds = %18
  store i32 1, ptr %13, align 4
  br label %254

52:                                               ; preds = %4
  store i32 0, ptr %10, align 4, !tbaa !8
  br label %53

53:                                               ; preds = %83, %52
  %54 = load i32, ptr %10, align 4, !tbaa !8
  %55 = load i32, ptr %9, align 4, !tbaa !8
  %56 = icmp slt i32 %54, %55
  br i1 %56, label %57, label %86

57:                                               ; preds = %53
  %58 = load ptr, ptr %6, align 8, !tbaa !3
  %59 = load i32, ptr %10, align 4, !tbaa !8
  %60 = sext i32 %59 to i64
  %61 = getelementptr inbounds i32, ptr %58, i64 %60
  %62 = load i32, ptr %61, align 4, !tbaa !8
  %63 = load ptr, ptr %6, align 8, !tbaa !3
  %64 = load i32, ptr %10, align 4, !tbaa !8
  %65 = sext i32 %64 to i64
  %66 = getelementptr inbounds i32, ptr %63, i64 %65
  %67 = load i32, ptr %66, align 4, !tbaa !8
  %68 = and i32 %67, -858993460
  %69 = lshr i32 %68, 2
  %70 = or i32 %62, %69
  %71 = load ptr, ptr %6, align 8, !tbaa !3
  %72 = load i32, ptr %10, align 4, !tbaa !8
  %73 = sext i32 %72 to i64
  %74 = getelementptr inbounds i32, ptr %71, i64 %73
  %75 = load i32, ptr %74, align 4, !tbaa !8
  %76 = and i32 %75, 858993459
  %77 = shl i32 %76, 2
  %78 = or i32 %70, %77
  %79 = load ptr, ptr %5, align 8, !tbaa !3
  %80 = load i32, ptr %10, align 4, !tbaa !8
  %81 = sext i32 %80 to i64
  %82 = getelementptr inbounds i32, ptr %79, i64 %81
  store i32 %78, ptr %82, align 4, !tbaa !8
  br label %83

83:                                               ; preds = %57
  %84 = load i32, ptr %10, align 4, !tbaa !8
  %85 = add nsw i32 %84, 1
  store i32 %85, ptr %10, align 4, !tbaa !8
  br label %53, !llvm.loop !97

86:                                               ; preds = %53
  store i32 1, ptr %13, align 4
  br label %254

87:                                               ; preds = %4
  store i32 0, ptr %10, align 4, !tbaa !8
  br label %88

88:                                               ; preds = %118, %87
  %89 = load i32, ptr %10, align 4, !tbaa !8
  %90 = load i32, ptr %9, align 4, !tbaa !8
  %91 = icmp slt i32 %89, %90
  br i1 %91, label %92, label %121

92:                                               ; preds = %88
  %93 = load ptr, ptr %6, align 8, !tbaa !3
  %94 = load i32, ptr %10, align 4, !tbaa !8
  %95 = sext i32 %94 to i64
  %96 = getelementptr inbounds i32, ptr %93, i64 %95
  %97 = load i32, ptr %96, align 4, !tbaa !8
  %98 = load ptr, ptr %6, align 8, !tbaa !3
  %99 = load i32, ptr %10, align 4, !tbaa !8
  %100 = sext i32 %99 to i64
  %101 = getelementptr inbounds i32, ptr %98, i64 %100
  %102 = load i32, ptr %101, align 4, !tbaa !8
  %103 = and i32 %102, -252645136
  %104 = lshr i32 %103, 4
  %105 = or i32 %97, %104
  %106 = load ptr, ptr %6, align 8, !tbaa !3
  %107 = load i32, ptr %10, align 4, !tbaa !8
  %108 = sext i32 %107 to i64
  %109 = getelementptr inbounds i32, ptr %106, i64 %108
  %110 = load i32, ptr %109, align 4, !tbaa !8
  %111 = and i32 %110, 252645135
  %112 = shl i32 %111, 4
  %113 = or i32 %105, %112
  %114 = load ptr, ptr %5, align 8, !tbaa !3
  %115 = load i32, ptr %10, align 4, !tbaa !8
  %116 = sext i32 %115 to i64
  %117 = getelementptr inbounds i32, ptr %114, i64 %116
  store i32 %113, ptr %117, align 4, !tbaa !8
  br label %118

118:                                              ; preds = %92
  %119 = load i32, ptr %10, align 4, !tbaa !8
  %120 = add nsw i32 %119, 1
  store i32 %120, ptr %10, align 4, !tbaa !8
  br label %88, !llvm.loop !98

121:                                              ; preds = %88
  store i32 1, ptr %13, align 4
  br label %254

122:                                              ; preds = %4
  store i32 0, ptr %10, align 4, !tbaa !8
  br label %123

123:                                              ; preds = %153, %122
  %124 = load i32, ptr %10, align 4, !tbaa !8
  %125 = load i32, ptr %9, align 4, !tbaa !8
  %126 = icmp slt i32 %124, %125
  br i1 %126, label %127, label %156

127:                                              ; preds = %123
  %128 = load ptr, ptr %6, align 8, !tbaa !3
  %129 = load i32, ptr %10, align 4, !tbaa !8
  %130 = sext i32 %129 to i64
  %131 = getelementptr inbounds i32, ptr %128, i64 %130
  %132 = load i32, ptr %131, align 4, !tbaa !8
  %133 = load ptr, ptr %6, align 8, !tbaa !3
  %134 = load i32, ptr %10, align 4, !tbaa !8
  %135 = sext i32 %134 to i64
  %136 = getelementptr inbounds i32, ptr %133, i64 %135
  %137 = load i32, ptr %136, align 4, !tbaa !8
  %138 = and i32 %137, -16711936
  %139 = lshr i32 %138, 8
  %140 = or i32 %132, %139
  %141 = load ptr, ptr %6, align 8, !tbaa !3
  %142 = load i32, ptr %10, align 4, !tbaa !8
  %143 = sext i32 %142 to i64
  %144 = getelementptr inbounds i32, ptr %141, i64 %143
  %145 = load i32, ptr %144, align 4, !tbaa !8
  %146 = and i32 %145, 16711935
  %147 = shl i32 %146, 8
  %148 = or i32 %140, %147
  %149 = load ptr, ptr %5, align 8, !tbaa !3
  %150 = load i32, ptr %10, align 4, !tbaa !8
  %151 = sext i32 %150 to i64
  %152 = getelementptr inbounds i32, ptr %149, i64 %151
  store i32 %148, ptr %152, align 4, !tbaa !8
  br label %153

153:                                              ; preds = %127
  %154 = load i32, ptr %10, align 4, !tbaa !8
  %155 = add nsw i32 %154, 1
  store i32 %155, ptr %10, align 4, !tbaa !8
  br label %123, !llvm.loop !99

156:                                              ; preds = %123
  store i32 1, ptr %13, align 4
  br label %254

157:                                              ; preds = %4
  store i32 0, ptr %10, align 4, !tbaa !8
  br label %158

158:                                              ; preds = %188, %157
  %159 = load i32, ptr %10, align 4, !tbaa !8
  %160 = load i32, ptr %9, align 4, !tbaa !8
  %161 = icmp slt i32 %159, %160
  br i1 %161, label %162, label %191

162:                                              ; preds = %158
  %163 = load ptr, ptr %6, align 8, !tbaa !3
  %164 = load i32, ptr %10, align 4, !tbaa !8
  %165 = sext i32 %164 to i64
  %166 = getelementptr inbounds i32, ptr %163, i64 %165
  %167 = load i32, ptr %166, align 4, !tbaa !8
  %168 = load ptr, ptr %6, align 8, !tbaa !3
  %169 = load i32, ptr %10, align 4, !tbaa !8
  %170 = sext i32 %169 to i64
  %171 = getelementptr inbounds i32, ptr %168, i64 %170
  %172 = load i32, ptr %171, align 4, !tbaa !8
  %173 = and i32 %172, -65536
  %174 = lshr i32 %173, 16
  %175 = or i32 %167, %174
  %176 = load ptr, ptr %6, align 8, !tbaa !3
  %177 = load i32, ptr %10, align 4, !tbaa !8
  %178 = sext i32 %177 to i64
  %179 = getelementptr inbounds i32, ptr %176, i64 %178
  %180 = load i32, ptr %179, align 4, !tbaa !8
  %181 = and i32 %180, 65535
  %182 = shl i32 %181, 16
  %183 = or i32 %175, %182
  %184 = load ptr, ptr %5, align 8, !tbaa !3
  %185 = load i32, ptr %10, align 4, !tbaa !8
  %186 = sext i32 %185 to i64
  %187 = getelementptr inbounds i32, ptr %184, i64 %186
  store i32 %183, ptr %187, align 4, !tbaa !8
  br label %188

188:                                              ; preds = %162
  %189 = load i32, ptr %10, align 4, !tbaa !8
  %190 = add nsw i32 %189, 1
  store i32 %190, ptr %10, align 4, !tbaa !8
  br label %158, !llvm.loop !100

191:                                              ; preds = %158
  store i32 1, ptr %13, align 4
  br label %254

192:                                              ; preds = %4
  %193 = load i32, ptr %8, align 4, !tbaa !8
  %194 = sub nsw i32 %193, 5
  %195 = shl i32 1, %194
  store i32 %195, ptr %12, align 4, !tbaa !8
  store i32 0, ptr %11, align 4, !tbaa !8
  br label %196

196:                                              ; preds = %248, %192
  %197 = load i32, ptr %11, align 4, !tbaa !8
  %198 = load i32, ptr %9, align 4, !tbaa !8
  %199 = icmp slt i32 %197, %198
  br i1 %199, label %200, label %253

200:                                              ; preds = %196
  store i32 0, ptr %10, align 4, !tbaa !8
  br label %201

201:                                              ; preds = %234, %200
  %202 = load i32, ptr %10, align 4, !tbaa !8
  %203 = load i32, ptr %12, align 4, !tbaa !8
  %204 = icmp slt i32 %202, %203
  br i1 %204, label %205, label %237

205:                                              ; preds = %201
  %206 = load ptr, ptr %6, align 8, !tbaa !3
  %207 = load i32, ptr %10, align 4, !tbaa !8
  %208 = sext i32 %207 to i64
  %209 = getelementptr inbounds i32, ptr %206, i64 %208
  %210 = load i32, ptr %209, align 4, !tbaa !8
  %211 = load ptr, ptr %6, align 8, !tbaa !3
  %212 = load i32, ptr %12, align 4, !tbaa !8
  %213 = load i32, ptr %10, align 4, !tbaa !8
  %214 = add nsw i32 %212, %213
  %215 = sext i32 %214 to i64
  %216 = getelementptr inbounds i32, ptr %211, i64 %215
  %217 = load i32, ptr %216, align 4, !tbaa !8
  %218 = or i32 %210, %217
  %219 = load ptr, ptr %5, align 8, !tbaa !3
  %220 = load i32, ptr %10, align 4, !tbaa !8
  %221 = sext i32 %220 to i64
  %222 = getelementptr inbounds i32, ptr %219, i64 %221
  store i32 %218, ptr %222, align 4, !tbaa !8
  %223 = load ptr, ptr %5, align 8, !tbaa !3
  %224 = load i32, ptr %10, align 4, !tbaa !8
  %225 = sext i32 %224 to i64
  %226 = getelementptr inbounds i32, ptr %223, i64 %225
  %227 = load i32, ptr %226, align 4, !tbaa !8
  %228 = load ptr, ptr %5, align 8, !tbaa !3
  %229 = load i32, ptr %12, align 4, !tbaa !8
  %230 = load i32, ptr %10, align 4, !tbaa !8
  %231 = add nsw i32 %229, %230
  %232 = sext i32 %231 to i64
  %233 = getelementptr inbounds i32, ptr %228, i64 %232
  store i32 %227, ptr %233, align 4, !tbaa !8
  br label %234

234:                                              ; preds = %205
  %235 = load i32, ptr %10, align 4, !tbaa !8
  %236 = add nsw i32 %235, 1
  store i32 %236, ptr %10, align 4, !tbaa !8
  br label %201, !llvm.loop !101

237:                                              ; preds = %201
  %238 = load i32, ptr %12, align 4, !tbaa !8
  %239 = mul nsw i32 2, %238
  %240 = load ptr, ptr %5, align 8, !tbaa !3
  %241 = sext i32 %239 to i64
  %242 = getelementptr inbounds i32, ptr %240, i64 %241
  store ptr %242, ptr %5, align 8, !tbaa !3
  %243 = load i32, ptr %12, align 4, !tbaa !8
  %244 = mul nsw i32 2, %243
  %245 = load ptr, ptr %6, align 8, !tbaa !3
  %246 = sext i32 %244 to i64
  %247 = getelementptr inbounds i32, ptr %245, i64 %246
  store ptr %247, ptr %6, align 8, !tbaa !3
  br label %248

248:                                              ; preds = %237
  %249 = load i32, ptr %12, align 4, !tbaa !8
  %250 = mul nsw i32 2, %249
  %251 = load i32, ptr %11, align 4, !tbaa !8
  %252 = add nsw i32 %251, %250
  store i32 %252, ptr %11, align 4, !tbaa !8
  br label %196, !llvm.loop !102

253:                                              ; preds = %196
  store i32 1, ptr %13, align 4
  br label %254

254:                                              ; preds = %253, %191, %156, %121, %86, %51
  call void @llvm.lifetime.end.p0(i64 4, ptr %12) #8
  call void @llvm.lifetime.end.p0(i64 4, ptr %11) #8
  call void @llvm.lifetime.end.p0(i64 4, ptr %10) #8
  call void @llvm.lifetime.end.p0(i64 4, ptr %9) #8
  ret void
}