; Function Attrs: nofree norecurse nosync nounwind memory(argmem: readwrite) uwtable
define void @Kit_TruthExistNew(ptr noundef writeonly captures(none) %0, ptr noundef readonly captures(none) %1, i32 noundef %2, i32 noundef %3) local_unnamed_addr #0 {
  %5 = icmp slt i32 %2, 6
  %6 = add nsw i32 %2, -5
  %7 = shl nuw i32 1, %6
  %8 = select i1 %5, i32 1, i32 %7
  switch i32 %3, label %55 [
    i32 0, label %.preheader85
    i32 1, label %.preheader87
    i32 2, label %.preheader89
    i32 3, label %.preheader91
    i32 4, label %.preheader93
  ]

.preheader93:                                     ; preds = %4
  %9 = icmp sgt i32 %8, 0
  br i1 %9, label %.lr.ph.preheader, label %.loopexit

.lr.ph.preheader:                                 ; preds = %.preheader93
  %wide.trip.count = zext nneg i32 %8 to i64
  br label %.lr.ph

.preheader91:                                     ; preds = %4
  %10 = icmp sgt i32 %8, 0
  br i1 %10, label %.lr.ph97.preheader, label %.loopexit

.lr.ph97.preheader:                               ; preds = %.preheader91
  %wide.trip.count119 = zext nneg i32 %8 to i64
  br label %.lr.ph97

.preheader89:                                     ; preds = %4
  %11 = icmp sgt i32 %8, 0
  br i1 %11, label %.lr.ph99.preheader, label %.loopexit

.lr.ph99.preheader:                               ; preds = %.preheader89
  %wide.trip.count124 = zext nneg i32 %8 to i64
  br label %.lr.ph99

.preheader87:                                     ; preds = %4
  %12 = icmp sgt i32 %8, 0
  br i1 %12, label %.lr.ph101.preheader, label %.loopexit

.lr.ph101.preheader:                              ; preds = %.preheader87
  %wide.trip.count129 = zext nneg i32 %8 to i64
  br label %.lr.ph101

.preheader85:                                     ; preds = %4
  %13 = icmp sgt i32 %8, 0
  br i1 %13, label %.lr.ph103.preheader, label %.loopexit

.lr.ph103.preheader:                              ; preds = %.preheader85
  %wide.trip.count134 = zext nneg i32 %8 to i64
  br label %.lr.ph103

.lr.ph103:                                        ; preds = %.lr.ph103.preheader, %.lr.ph103
  %indvars.iv131 = phi i64 [ 0, %.lr.ph103.preheader ], [ %indvars.iv.next132, %.lr.ph103 ]
  %14 = getelementptr inbounds nuw i32, ptr %1, i64 %indvars.iv131
  %15 = load i32, ptr %14, align 4, !tbaa !3
  %16 = lshr i32 %15, 1
  %17 = and i32 %16, 1431655765
  %18 = shl i32 %15, 1
  %19 = and i32 %18, -1431655766
  %20 = or disjoint i32 %19, %17
  %21 = or i32 %20, %15
  %22 = getelementptr inbounds nuw i32, ptr %0, i64 %indvars.iv131
  store i32 %21, ptr %22, align 4, !tbaa !3
  %indvars.iv.next132 = add nuw nsw i64 %indvars.iv131, 1
  %exitcond135.not = icmp eq i64 %indvars.iv.next132, %wide.trip.count134
  br i1 %exitcond135.not, label %.loopexit, label %.lr.ph103, !llvm.loop !90

.lr.ph101:                                        ; preds = %.lr.ph101.preheader, %.lr.ph101
  %indvars.iv126 = phi i64 [ 0, %.lr.ph101.preheader ], [ %indvars.iv.next127, %.lr.ph101 ]
  %23 = getelementptr inbounds nuw i32, ptr %1, i64 %indvars.iv126
  %24 = load i32, ptr %23, align 4, !tbaa !3
  %25 = lshr i32 %24, 2
  %26 = and i32 %25, 858993459
  %27 = shl i32 %24, 2
  %28 = and i32 %27, -858993460
  %29 = or disjoint i32 %28, %26
  %30 = or i32 %29, %24
  %31 = getelementptr inbounds nuw i32, ptr %0, i64 %indvars.iv126
  store i32 %30, ptr %31, align 4, !tbaa !3
  %indvars.iv.next127 = add nuw nsw i64 %indvars.iv126, 1
  %exitcond130.not = icmp eq i64 %indvars.iv.next127, %wide.trip.count129
  br i1 %exitcond130.not, label %.loopexit, label %.lr.ph101, !llvm.loop !91

.lr.ph99:                                         ; preds = %.lr.ph99.preheader, %.lr.ph99
  %indvars.iv121 = phi i64 [ 0, %.lr.ph99.preheader ], [ %indvars.iv.next122, %.lr.ph99 ]
  %32 = getelementptr inbounds nuw i32, ptr %1, i64 %indvars.iv121
  %33 = load i32, ptr %32, align 4, !tbaa !3
  %34 = lshr i32 %33, 4
  %35 = and i32 %34, 252645135
  %36 = shl i32 %33, 4
  %37 = and i32 %36, -252645136
  %38 = or disjoint i32 %37, %35
  %39 = or i32 %38, %33
  %40 = getelementptr inbounds nuw i32, ptr %0, i64 %indvars.iv121
  store i32 %39, ptr %40, align 4, !tbaa !3
  %indvars.iv.next122 = add nuw nsw i64 %indvars.iv121, 1
  %exitcond125.not = icmp eq i64 %indvars.iv.next122, %wide.trip.count124
  br i1 %exitcond125.not, label %.loopexit, label %.lr.ph99, !llvm.loop !92

.lr.ph97:                                         ; preds = %.lr.ph97.preheader, %.lr.ph97
  %indvars.iv116 = phi i64 [ 0, %.lr.ph97.preheader ], [ %indvars.iv.next117, %.lr.ph97 ]
  %41 = getelementptr inbounds nuw i32, ptr %1, i64 %indvars.iv116
  %42 = load i32, ptr %41, align 4, !tbaa !3
  %43 = lshr i32 %42, 8
  %44 = and i32 %43, 16711935
  %45 = shl i32 %42, 8
  %46 = and i32 %45, -16711936
  %47 = or disjoint i32 %46, %44
  %48 = or i32 %47, %42
  %49 = getelementptr inbounds nuw i32, ptr %0, i64 %indvars.iv116
  store i32 %48, ptr %49, align 4, !tbaa !3
  %indvars.iv.next117 = add nuw nsw i64 %indvars.iv116, 1
  %exitcond120.not = icmp eq i64 %indvars.iv.next117, %wide.trip.count119
  br i1 %exitcond120.not, label %.loopexit, label %.lr.ph97, !llvm.loop !93

.lr.ph:                                           ; preds = %.lr.ph.preheader, %.lr.ph
  %indvars.iv = phi i64 [ 0, %.lr.ph.preheader ], [ %indvars.iv.next, %.lr.ph ]
  %50 = getelementptr inbounds nuw i32, ptr %1, i64 %indvars.iv
  %51 = load i32, ptr %50, align 4, !tbaa !3
  %52 = tail call i32 @llvm.fshl.i32(i32 %51, i32 %51, i32 16)
  %53 = or i32 %52, %51
  %54 = getelementptr inbounds nuw i32, ptr %0, i64 %indvars.iv
  store i32 %53, ptr %54, align 4, !tbaa !3
  %indvars.iv.next = add nuw nsw i64 %indvars.iv, 1
  %exitcond.not = icmp eq i64 %indvars.iv.next, %wide.trip.count
  br i1 %exitcond.not, label %.loopexit, label %.lr.ph, !llvm.loop !94

55:                                               ; preds = %4
  %56 = add nsw i32 %3, -5
  %57 = shl nuw i32 1, %56
  %58 = icmp sgt i32 %8, 0
  br i1 %58, label %.preheader.lr.ph, label %.loopexit

.preheader.lr.ph:                                 ; preds = %55
  %.not = icmp eq i32 %56, 31
  %59 = shl i32 2, %56
  %60 = sext i32 %59 to i64
  br i1 %.not, label %.loopexit, label %.preheader.us.preheader

.preheader.us.preheader:                          ; preds = %.preheader.lr.ph
  %61 = sext i32 %57 to i64
  %smax = tail call i32 @llvm.smax.i32(i32 %57, i32 1)
  %wide.trip.count139 = zext nneg i32 %smax to i64
  br label %.preheader.us

.preheader.us:                                    ; preds = %.preheader.us.preheader, %._crit_edge.us
  %.0108.us = phi ptr [ %71, %._crit_edge.us ], [ %0, %.preheader.us.preheader ]
  %.080107.us = phi i32 [ %73, %._crit_edge.us ], [ 0, %.preheader.us.preheader ]
  %.082106.us = phi ptr [ %72, %._crit_edge.us ], [ %1, %.preheader.us.preheader ]
  br label %62

62:                                               ; preds = %.preheader.us, %62
  %indvars.iv136 = phi i64 [ 0, %.preheader.us ], [ %indvars.iv.next137, %62 ]
  %63 = getelementptr inbounds nuw i32, ptr %.082106.us, i64 %indvars.iv136
  %64 = load i32, ptr %63, align 4, !tbaa !3
  %65 = add nuw nsw i64 %indvars.iv136, %61
  %66 = getelementptr inbounds i32, ptr %.082106.us, i64 %65
  %67 = load i32, ptr %66, align 4, !tbaa !3
  %68 = or i32 %67, %64
  %69 = getelementptr inbounds nuw i32, ptr %.0108.us, i64 %indvars.iv136
  store i32 %68, ptr %69, align 4, !tbaa !3
  %70 = getelementptr inbounds i32, ptr %.0108.us, i64 %65
  store i32 %68, ptr %70, align 4, !tbaa !3
  %indvars.iv.next137 = add nuw nsw i64 %indvars.iv136, 1
  %exitcond140.not = icmp eq i64 %indvars.iv.next137, %wide.trip.count139
  br i1 %exitcond140.not, label %._crit_edge.us, label %62, !llvm.loop !95

._crit_edge.us:                                   ; preds = %62
  %71 = getelementptr inbounds i32, ptr %.0108.us, i64 %60
  %72 = getelementptr inbounds i32, ptr %.082106.us, i64 %60
  %73 = add nsw i32 %.080107.us, %59
  %74 = icmp slt i32 %73, %8
  br i1 %74, label %.preheader.us, label %.loopexit, !llvm.loop !96

.loopexit:                                        ; preds = %.lr.ph, %.lr.ph97, %.lr.ph99, %.lr.ph101, %.lr.ph103, %._crit_edge.us, %.preheader.lr.ph, %.preheader93, %.preheader91, %.preheader89, %.preheader87, %.preheader85, %55
  ret void
}